target datalayout = "e-m:e-p270:32:32-p271:32:32-p272:64:64-i64:64-i128:128-f80:128-n8:16:32:64-S128"
target triple = "x86_64-pc-linux-gnu"

%struct.DdLevelQueue = type { ptr, ptr, ptr, ptr, i32, i32, i32, i32, i32, i32 }
%struct.DdQueueItem = type { ptr, ptr, ptr }

; Function Attrs: nounwind uwtable
define internal void @hashDelete(ptr noundef %0, ptr noundef %1) #0 {
  %3 = alloca ptr, align 8
  %4 = alloca ptr, align 8
  %5 = alloca i32, align 4
  %6 = alloca ptr, align 8
  store ptr %0, ptr %3, align 8
  store ptr %1, ptr %4, align 8
  %7 = load ptr, ptr %4, align 8
  %8 = getelementptr inbounds %struct.DdQueueItem, ptr %7, i32 0, i32 2
  %9 = load ptr, ptr %8, align 8
  %10 = ptrtoint ptr %9 to i64
  %11 = trunc i64 %10 to i32
  %12 = mul i32 %11, 12582917
  %13 = load ptr, ptr %3, align 8
  %14 = getelementptr inbounds %struct.DdLevelQueue, ptr %13, i32 0, i32 9
  %15 = load i32, ptr %14, align 4
  %16 = lshr i32 %12, %15
  store i32 %16, ptr %5, align 4
  %17 = load ptr, ptr %3, align 8
  %18 = getelementptr inbounds %struct.DdLevelQueue, ptr %17, i32 0, i32 3
  %19 = load ptr, ptr %18, align 8
  %20 = load i32, ptr %5, align 4
  %21 = sext i32 %20 to i64
  %22 = getelementptr inbounds ptr, ptr %19, i64 %21
  %23 = load ptr, ptr %22, align 8
  store ptr %23, ptr %6, align 8
  %24 = load ptr, ptr %6, align 8
  %25 = icmp eq ptr %24, null
  br i1 %25, label %26, label %27

26:                                               ; preds = %2
  br label %64

27:                                               ; preds = %2
  %28 = load ptr, ptr %6, align 8
  %29 = load ptr, ptr %4, align 8
  %30 = icmp eq ptr %28, %29
  br i1 %30, label %31, label %41

31:                                               ; preds = %27
  %32 = load ptr, ptr %6, align 8
  %33 = getelementptr inbounds %struct.DdQueueItem, ptr %32, i32 0, i32 1
  %34 = load ptr, ptr %33, align 8
  %35 = load ptr, ptr %3, align 8
  %36 = getelementptr inbounds %struct.DdLevelQueue, ptr %35, i32 0, i32 3
  %37 = load ptr, ptr %36, align 8
  %38 = load i32, ptr %5, align 4
  %39 = sext i32 %38 to i64
  %40 = getelementptr inbounds ptr, ptr %37, i64 %39
  store ptr %34, ptr %40, align 8
  br label %64

41:                                               ; preds = %27
  br label %42

42:                                               ; preds = %59, %41
  %43 = load ptr, ptr %6, align 8
  %44 = getelementptr inbounds %struct.DdQueueItem, ptr %43, i32 0, i32 1
  %45 = load ptr, ptr %44, align 8
  %46 = icmp ne ptr %45, null
  br i1 %46, label %47, label %63

47:                                               ; preds = %42
  %48 = load ptr, ptr %6, align 8
  %49 = getelementptr inbounds %struct.DdQueueItem, ptr %48, i32 0, i32 1
  %50 = load ptr, ptr %49, align 8
  %51 = load ptr, ptr %4, align 8
  %52 = icmp eq ptr %50, %51
  br i1 %52, label %53, label %59

53:                                               ; preds = %47
  %54 = load ptr, ptr %4, align 8
  %55 = getelementptr inbounds %struct.DdQueueItem, ptr %54, i32 0, i32 1
  %56 = load ptr, ptr %55, align 8
  %57 = load ptr, ptr %6, align 8
  %58 = getelementptr inbounds %struct.DdQueueItem, ptr %57, i32 0, i32 1
  store ptr %56, ptr %58, align 8
  br label %64

59:                                               ; preds = %47
  %60 = load ptr, ptr %6, align 8
  %61 = getelementptr inbounds %struct.DdQueueItem, ptr %60, i32 0, i32 1
  %62 = load ptr, ptr %61, align 8
  store ptr %62, ptr %6, align 8
  br label %42, !llvm.loop !9

63:                                               ; preds = %42
  br label %64

64:                                               ; preds = %63, %53, %31, %26
  ret void
}

; Function Attrs: nounwind uwtable
define void @cuddLevelQueueDequeue(ptr noundef %0, i32 noundef %1) #0 {
  %3 = alloca ptr, align 8
  %4 = alloca i32, align 4
  %5 = alloca ptr, align 8
  store ptr %0, ptr %3, align 8
  store i32 %1, ptr %4, align 4
  %6 = load ptr, ptr %3, align 8
  %7 = getelementptr inbounds %struct.DdLevelQueue, ptr %6, i32 0, i32 0
  %8 = load ptr, ptr %7, align 8
  store ptr %8, ptr %5, align 8
  %9 = load ptr, ptr %3, align 8
  %10 = load ptr, ptr %5, align 8
  call void @hashDelete(ptr noundef %9, ptr noundef %10)
  %11 = load ptr, ptr %3, align 8
  %12 = getelementptr inbounds %struct.DdLevelQueue, ptr %11, i32 0, i32 1
  %13 = load ptr, ptr %12, align 8
  %14 = load i32, ptr %4, align 4
  %15 = sext i32 %14 to i64
  %16 = getelementptr inbounds ptr, ptr %13, i64 %15
  %17 = load ptr, ptr %16, align 8
  %18 = load ptr, ptr %5, align 8
  %19 = icmp eq ptr %17, %18
  br i1 %19, label %20, label %27

20:                                               ; preds = %2
  %21 = load ptr, ptr %3, align 8
  %22 = getelementptr inbounds %struct.DdLevelQueue, ptr %21, i32 0, i32 1
  %23 = load ptr, ptr %22, align 8
  %24 = load i32, ptr %4, align 4
  %25 = sext i32 %24 to i64
  %26 = getelementptr inbounds ptr, ptr %23, i64 %25
  store ptr null, ptr %26, align 8
  br label %27

27:                                               ; preds = %20, %2
  %28 = load ptr, ptr %5, align 8
  %29 = getelementptr inbounds %struct.DdQueueItem, ptr %28, i32 0, i32 0
  %30 = load ptr, ptr %29, align 8
  %31 = load ptr, ptr %3, align 8
  %32 = getelementptr inbounds %struct.DdLevelQueue, ptr %31, i32 0, i32 0
  store ptr %30, ptr %32, align 8
  %33 = load ptr, ptr %3, align 8
  %34 = getelementptr inbounds %struct.DdLevelQueue, ptr %33, i32 0, i32 2
  %35 = load ptr, ptr %34, align 8
  %36 = load ptr, ptr %5, align 8
  %37 = getelementptr inbounds %struct.DdQueueItem, ptr %36, i32 0, i32 0
  store ptr %35, ptr %37, align 8
  %38 = load ptr, ptr %5, align 8
  %39 = load ptr, ptr %3, align 8
  %40 = getelementptr inbounds %struct.DdLevelQueue, ptr %39, i32 0, i32 2
  store ptr %38, ptr %40, align 8
  %41 = load ptr, ptr %3, align 8
  %42 = getelementptr inbounds %struct.DdLevelQueue, ptr %41, i32 0, i32 6
  %43 = load i32, ptr %42, align 8
  %44 = add nsw i32 %43, -1
  store i32 %44, ptr %42, align 8
  ret void
}