; Function Attrs: nofree norecurse nosync nounwind memory(readwrite, inaccessiblemem: none) uwtable
define void @cuddLevelQueueDequeue(ptr noundef captures(none) %0, i32 noundef %1) local_unnamed_addr #5 {
  %3 = load ptr, ptr %0, align 8
  %4 = getelementptr i8, ptr %0, i64 24
  %.val = load ptr, ptr %4, align 8
  %5 = getelementptr i8, ptr %0, i64 52
  %.val14 = load i32, ptr %5, align 4
  %6 = getelementptr inbounds nuw i8, ptr %3, i64 16
  %7 = load ptr, ptr %6, align 8
  %8 = ptrtoint ptr %7 to i64
  %9 = trunc i64 %8 to i32
  %10 = mul i32 %9, 12582917
  %11 = lshr i32 %10, %.val14
  %12 = sext i32 %11 to i64
  %13 = getelementptr inbounds ptr, ptr %.val, i64 %12
  %14 = load ptr, ptr %13, align 8
  %15 = icmp eq ptr %14, null
  br i1 %15, label %hashDelete.exit, label %16

16:                                               ; preds = %2
  %17 = icmp eq ptr %14, %3
  br i1 %17, label %18, label %.preheader.i

18:                                               ; preds = %16
  %19 = getelementptr inbounds nuw i8, ptr %14, i64 8
  %20 = load ptr, ptr %19, align 8
  store ptr %20, ptr %13, align 8
  br label %hashDelete.exit

.preheader.i:                                     ; preds = %16, %23
  %.0.i = phi ptr [ %22, %23 ], [ %14, %16 ]
  %21 = getelementptr inbounds nuw i8, ptr %.0.i, i64 8
  %22 = load ptr, ptr %21, align 8
  %.not.i = icmp eq ptr %22, null
  br i1 %.not.i, label %hashDelete.exit, label %23

23:                                               ; preds = %.preheader.i
  %24 = icmp eq ptr %22, %3
  br i1 %24, label %25, label %.preheader.i, !llvm.loop !11

25:                                               ; preds = %23
  %26 = getelementptr inbounds nuw i8, ptr %.0.i, i64 8
  %27 = getelementptr inbounds nuw i8, ptr %3, i64 8
  %28 = load ptr, ptr %27, align 8
  store ptr %28, ptr %26, align 8
  br label %hashDelete.exit

hashDelete.exit:                                  ; preds = %.preheader.i, %2, %18, %25
  %29 = getelementptr inbounds nuw i8, ptr %0, i64 8
  %30 = load ptr, ptr %29, align 8
  %31 = sext i32 %1 to i64
  %32 = getelementptr inbounds ptr, ptr %30, i64 %31
  %33 = load ptr, ptr %32, align 8
  %34 = icmp eq ptr %33, %3
  br i1 %34, label %35, label %36

35:                                               ; preds = %hashDelete.exit
  store ptr null, ptr %32, align 8
  br label %36

36:                                               ; preds = %35, %hashDelete.exit
  %37 = load ptr, ptr %3, align 8
  store ptr %37, ptr %0, align 8
  %38 = getelementptr inbounds nuw i8, ptr %0, i64 16
  %39 = load ptr, ptr %38, align 8
  store ptr %39, ptr %3, align 8
  store ptr %3, ptr %38, align 8
  %40 = getelementptr inbounds nuw i8, ptr %0, i64 40
  %41 = load i32, ptr %40, align 8
  %42 = add nsw i32 %41, -1
  store i32 %42, ptr %40, align 8
  ret void
}